target datalayout = "e-m:e-p270:32:32-p271:32:32-p272:64:64-i64:64-i128:128-f80:128-n8:16:32:64-S128"
target triple = "x86_64-pc-linux-gnu"

%"class.datalog::mk_scale" = type { %"class.datalog::rule_transformer::plugin", ptr, ptr, %class.arith_util, %class.ref_vector, %class.ref_vector.0, %class.obj_map, ptr }
%"class.datalog::rule_transformer::plugin" = type { ptr, i32, i8, ptr }
%class.arith_util = type { ptr, ptr }
%class.ref_vector = type { %class.ref_vector_core }
%class.ref_vector_core = type { %class.ref_manager_wrapper, %class.ptr_vector }
%class.ref_manager_wrapper = type { ptr }
%class.ptr_vector = type { %class.vector }
%class.vector = type { ptr }
%class.ref_vector.0 = type { %class.ref_vector_core.1 }
%class.ref_vector_core.1 = type { %class.ref_manager_wrapper.2, %class.ptr_vector.3 }
%class.ref_manager_wrapper.2 = type { ptr }
%class.ptr_vector.3 = type { %class.vector.4 }
%class.vector.4 = type { ptr }
%class.obj_map = type { %class.core_hashtable }
%class.core_hashtable = type <{ ptr, i32, i32, i32, [4 x i8] }>
%class.obj_ref.13 = type { ptr, ptr }
%class.ast = type { i32, i32, i32, i32 }

; Function Attrs: mustprogress nounwind uwtable
define linkonce_odr hidden void @_ZN3ast7inc_refEv(ptr noundef nonnull align 4 dereferenceable(16) %0) #5 comdat align 2 {
  %2 = alloca ptr, align 8
  store ptr %0, ptr %2, align 8, !tbaa !319
  %3 = load ptr, ptr %2, align 8
  %4 = getelementptr inbounds nuw %class.ast, ptr %3, i32 0, i32 2
  %5 = load i32, ptr %4, align 4, !tbaa !339
  %6 = add i32 %5, 1
  store i32 %6, ptr %4, align 4, !tbaa !339
  ret void
}

; Function Attrs: mustprogress uwtable
define linkonce_odr hidden void @_ZN11ast_manager7inc_refEP3ast(ptr noundef nonnull align 8 dereferenceable(976) %0, ptr noundef %1) #4 comdat align 2 {
  %3 = alloca ptr, align 8
  %4 = alloca ptr, align 8
  store ptr %0, ptr %3, align 8, !tbaa !14
  store ptr %1, ptr %4, align 8, !tbaa !319
  %5 = load ptr, ptr %4, align 8, !tbaa !319
  %6 = icmp ne ptr %5, null
  br i1 %6, label %7, label %9

7:                                                ; preds = %2
  %8 = load ptr, ptr %4, align 8, !tbaa !319
  call void @_ZN3ast7inc_refEv(ptr noundef nonnull align 4 dereferenceable(16) %8)
  br label %9

9:                                                ; preds = %7, %2
  ret void
}

; Function Attrs: mustprogress uwtable
define linkonce_odr hidden void @_ZN7obj_refI3app11ast_managerE7inc_refEv(ptr noundef nonnull align 8 dereferenceable(16) %0) #4 comdat align 2 {
  %2 = alloca ptr, align 8
  store ptr %0, ptr %2, align 8, !tbaa !253
  %3 = load ptr, ptr %2, align 8
  %4 = getelementptr inbounds nuw %class.obj_ref.13, ptr %3, i32 0, i32 0
  %5 = load ptr, ptr %4, align 8, !tbaa !255
  %6 = icmp ne ptr %5, null
  br i1 %6, label %7, label %12

7:                                                ; preds = %1
  %8 = getelementptr inbounds nuw %class.obj_ref.13, ptr %3, i32 0, i32 1
  %9 = load ptr, ptr %8, align 8, !tbaa !622
  %10 = getelementptr inbounds nuw %class.obj_ref.13, ptr %3, i32 0, i32 0
  %11 = load ptr, ptr %10, align 8, !tbaa !255
  call void @_ZN11ast_manager7inc_refEP3ast(ptr noundef nonnull align 8 dereferenceable(976) %9, ptr noundef %11)
  br label %12

12:                                               ; preds = %7, %1
  ret void
}

; Function Attrs: mustprogress uwtable
define linkonce_odr hidden void @_ZN7obj_refI3app11ast_managerEC2EPS0_RS1_(ptr noundef nonnull align 8 dereferenceable(16) %0, ptr noundef %1, ptr noundef nonnull align 8 dereferenceable(976) %2) unnamed_addr #4 comdat align 2 {
  %4 = alloca ptr, align 8
  %5 = alloca ptr, align 8
  %6 = alloca ptr, align 8
  store ptr %0, ptr %4, align 8, !tbaa !253
  store ptr %1, ptr %5, align 8, !tbaa !276
  store ptr %2, ptr %6, align 8, !tbaa !14
  %7 = load ptr, ptr %4, align 8
  %8 = getelementptr inbounds nuw %class.obj_ref.13, ptr %7, i32 0, i32 0
  %9 = load ptr, ptr %5, align 8, !tbaa !276
  store ptr %9, ptr %8, align 8, !tbaa !255
  %10 = getelementptr inbounds nuw %class.obj_ref.13, ptr %7, i32 0, i32 1
  %11 = load ptr, ptr %6, align 8, !tbaa !14
  store ptr %11, ptr %10, align 8, !tbaa !14
  call void @_ZN7obj_refI3app11ast_managerE7inc_refEv(ptr noundef nonnull align 8 dereferenceable(16) %7)
  ret void
}

; Function Attrs: inlinehint mustprogress nounwind uwtable
define linkonce_odr hidden noundef ptr @_Z6to_appP3ast(ptr noundef %0) #7 comdat {
  %2 = alloca ptr, align 8
  store ptr %0, ptr %2, align 8, !tbaa !319
  %3 = load ptr, ptr %2, align 8, !tbaa !319
  ret ptr %3
}

; Function Attrs: mustprogress uwtable
define hidden void @_ZN7datalog8mk_scale13mk_constraintEjP3app(ptr dead_on_unwind noalias writable sret(%class.obj_ref.13) align 8 %0, ptr noundef nonnull align 8 dereferenceable(120) %1, i32 noundef %2, ptr noundef %3) #4 align 2 {
  %5 = alloca ptr, align 8
  %6 = alloca ptr, align 8
  %7 = alloca i32, align 4
  %8 = alloca ptr, align 8
  %9 = alloca ptr, align 8
  store ptr %0, ptr %5, align 8
  store ptr %1, ptr %6, align 8, !tbaa !3
  store i32 %2, ptr %7, align 4, !tbaa !10
  store ptr %3, ptr %8, align 8, !tbaa !276
  %10 = load ptr, ptr %6, align 8
  call void @llvm.lifetime.start.p0(i64 8, ptr %9) #3
  %11 = load i32, ptr %7, align 4, !tbaa !10
  %12 = load ptr, ptr %8, align 8, !tbaa !276
  %13 = call noundef ptr @_ZN7datalog8mk_scale9linearizeEjP4expr(ptr noundef nonnull align 8 dereferenceable(120) %10, i32 noundef %11, ptr noundef %12)
  store ptr %13, ptr %9, align 8, !tbaa !280
  %14 = load ptr, ptr %9, align 8, !tbaa !280
  %15 = call noundef ptr @_Z6to_appP3ast(ptr noundef %14)
  %16 = getelementptr inbounds nuw %"class.datalog::mk_scale", ptr %10, i32 0, i32 1
  %17 = load ptr, ptr %16, align 8, !tbaa !16
  call void @_ZN7obj_refI3app11ast_managerEC2EPS0_RS1_(ptr noundef nonnull align 8 dereferenceable(16) %0, ptr noundef %15, ptr noundef nonnull align 8 dereferenceable(976) %17)
  call void @llvm.lifetime.end.p0(i64 8, ptr %9) #3
  ret void
}