; Function Attrs: mustprogress uwtable
define hidden void @_ZN7datalog8mk_scale13mk_constraintEjP3app(ptr dead_on_unwind noalias writable writeonly sret(%class.obj_ref.13) align 8 captures(none) initializes((0, 16)) %0, ptr noundef nonnull align 8 dereferenceable(120) %1, i32 noundef %2, ptr noundef %3) local_unnamed_addr #3 align 2 {
  %5 = tail call noundef ptr @_ZN7datalog8mk_scale9linearizeEjP4expr(ptr noundef nonnull align 8 dereferenceable(120) %1, i32 noundef %2, ptr noundef %3)
  %6 = getelementptr inbounds nuw i8, ptr %1, i64 24
  %7 = load ptr, ptr %6, align 8, !tbaa !213
  store ptr %5, ptr %0, align 8, !tbaa !241
  %8 = getelementptr inbounds nuw i8, ptr %0, i64 8
  store ptr %7, ptr %8, align 8, !tbaa !211
  %.not.i.i = icmp eq ptr %5, null
  br i1 %.not.i.i, label %_ZN7obj_refI3app11ast_managerEC2EPS0_RS1_.exit, label %_ZN11ast_manager7inc_refEP3ast.exit.i.i

_ZN11ast_manager7inc_refEP3ast.exit.i.i:          ; preds = %4
  %9 = getelementptr inbounds nuw i8, ptr %5, i64 8
  %10 = load i32, ptr %9, align 4, !tbaa !225
  %11 = add i32 %10, 1
  store i32 %11, ptr %9, align 4, !tbaa !225
  br label %_ZN7obj_refI3app11ast_managerEC2EPS0_RS1_.exit

_ZN7obj_refI3app11ast_managerEC2EPS0_RS1_.exit:   ; preds = %4, %_ZN11ast_manager7inc_refEP3ast.exit.i.i
  ret void
}